Certificate:
    Data:
        Version: 3 (0x2)
        Serial Number:
            6b:57:02:76:dc:b4:70:ca:fb:5b:cf:8b:28:f6:f7:c3
        Signature Algorithm: sha256WithRSAEncryption
        Issuer: CN=user
        Validity
            Not Before: Oct 19 18:21:10 2024 GMT
            Not After : Jan 22 18:21:10 2027 GMT
        Subject: CN=localhost
        Subject Public Key Info:
            Public Key Algorithm: rsaEncryption
                RSA Public-Key: (2048 bit)
                Modulus:
                    00:eb:8d:d9:74:f0:d8:ab:8b:e2:2a:5a:ca:8a:90:
                    8b:8c:25:a1:82:60:27:ed:37:41:4a:a3:10:da:f9:
                    8e:9b:f4:27:13:bd:4d:82:e4:e2:f6:cf:36:3a:b7:
                    df:8c:5f:52:12:80:24:b6:45:7e:19:f0:09:6b:60:
                    d3:d7:59:52:5b:56:39:3c:c8:5b:3e:18:55:5c:33:
                    0f:f0:e2:ad:f2:40:23:07:92:8f:e7:83:c3:eb:7a:
                    02:80:c2:ea:66:bf:93:4c:84:d5:54:2c:8b:e4:03:
                    cf:25:8f:2b:e0:3a:3a:9a:90:5a:3e:ab:4a:f3:be:
                    e0:b9:05:a3:fa:ac:a9:55:ca:1c:eb:0f:f0:e8:f7:
                    3a:30:66:6c:49:b5:8f:7d:a0:d9:01:c8:73:84:db:
                    a4:12:6d:f1:2f:8c:9e:d7:dc:aa:2d:43:dc:ff:72:
                    7a:cf:9a:cc:fc:7e:81:95:c5:aa:5b:76:2f:73:79:
                    37:25:ac:ad:ff:e4:38:f3:38:0f:e7:e3:fe:51:bf:
                    bd:ea:f1:00:af:05:1f:24:a7:09:11:1f:0b:66:9b:
                    91:85:33:4e:88:a8:61:d4:60:ce:83:5e:2b:f6:2a:
                    f3:23:95:20:cf:fb:f1:56:ea:21:ba:ff:67:16:47:
                    4e:50:24:e1:32:ff:0f:1c:5c:7c:a2:47:0f:88:89:
                    e5:6f
                Exponent: 65537 (0x10001)
        X509v3 extensions:
            X509v3 Basic Constraints: 
                CA:FALSE
            X509v3 Subject Key Identifier: 
                18:EA:D3:34:2B:05:57:78:1E:93:17:42:B0:7F:95:AA:7D:2F:79:40
            X509v3 Authority Key Identifier: 
                keyid:5E:5D:7C:59:A6:EF:5A:D6:29:B5:49:19:5B:6D:24:49:2C:EA:63:DC
                DirName:/CN=user
                serial:63:31:07:F2:19:F7:93:7B:B7:72:F2:6B:6A:27:2F:9B:58:AB:4D:AC

            X509v3 Extended Key Usage: 
                TLS Web Server Authentication
            X509v3 Key Usage: 
                Digital Signature, Key Encipherment
            X509v3 Subject Alternative Name: 
                DNS:localhost
    Signature Algorithm: sha256WithRSAEncryption
         47:be:10:12:73:d4:c4:28:27:da:ec:a7:27:f3:81:50:83:2a:
         21:6a:43:ff:36:ac:ef:ff:43:91:23:25:d2:4a:85:42:69:c6:
         c2:5b:e2:8d:c8:c5:3e:58:23:75:93:af:8f:34:28:53:a1:b7:
         96:a8:4e:c0:d4:7f:8a:69:c4:5b:50:cd:1f:fc:ed:8b:04:d0:
         45:b8:70:e4:89:b8:16:6b:12:b0:74:26:42:b2:b9:38:f2:36:
         46:c9:96:9c:65:39:52:ac:40:c7:d9:f7:8d:35:e0:87:00:af:
         a3:50:57:82:c4:04:81:fd:fb:7f:da:8c:6e:74:a0:85:8a:f5:
         2a:b4:dd:c8:b2:d1:19:01:d7:9d:4c:9b:ac:4a:8b:87:0d:23:
         4b:b3:6f:b5:da:97:ca:b5:32:3b:52:20:3e:91:4f:c7:06:d5:
         76:5c:fe:60:50:87:65:67:0e:d0:71:70:75:3d:2b:a6:cd:13:
         f0:ea:29:d3:a5:cd:f8:c0:c8:da:f0:71:74:b3:27:b3:dd:60:
         de:46:14:1a:a2:31:bf:cc:e8:b6:e5:3d:ae:21:fc:8c:ad:45:
         bb:b9:b4:9d:9f:34:15:4f:44:be:38:d7:5f:6d:7e:3e:ec:2e:
         e0:e2:70:1c:b2:e0:15:ee:f4:54:4a:76:d4:4d:22:ce:3d:94:
         93:a9:89:b3
-----BEGIN CERTIFICATE-----
MIIDXzCCAkegAwIBAgIQa1cCdty0cMr7W8+LKPb3wzANBgkqhkiG9w0BAQsFADAP
MQ0wCwYDVQQDDAR1c2VyMB4XDTI0MTAxOTE4MjExMFoXDTI3MDEyMjE4MjExMFow
FDESMBAGA1UEAwwJbG9jYWxob3N0MIIBIjANBgkqhkiG9w0BAQEFAAOCAQ8AMIIB
CgKCAQEA643ZdPDYq4viKlrKipCLjCWhgmAn7TdBSqMQ2vmOm/QnE71NguTi9s82
OrffjF9SEoAktkV+GfAJa2DT11lSW1Y5PMhbPhhVXDMP8OKt8kAjB5KP54PD63oC
gMLqZr+TTITVVCyL5APPJY8r4Do6mpBaPqtK877guQWj+qypVcoc6w/w6Pc6MGZs
SbWPfaDZAchzhNukEm3xL4ye19yqLUPc/3J6z5rM/H6BlcWqW3Yvc3k3Jayt/+Q4
8zgP5+P+Ub+96vEArwUfJKcJER8LZpuRhTNOiKhh1GDOg14r9irzI5Ugz/vxVuoh
uv9nFkdOUCThMv8PHFx8okcPiInlbwIDAQABo4GxMIGuMAkGA1UdEwQCMAAwHQYD
VR0OBBYEFBjq0zQrBVd4HpMXQrB/lap9L3lAMEoGA1UdIwRDMEGAFF5dfFmm71rW
KbVJGVttJEks6mPcoROkETAPMQ0wCwYDVQQDDAR1c2VyghRjMQfyGfeTe7dy8mtq
Jy+bWKtNrDATBgNVHSUEDDAKBggrBgEFBQcDATALBgNVHQ8EBAMCBaAwFAYDVR0R
BA0wC4IJbG9jYWxob3N0MA0GCSqGSIb3DQEBCwUAA4IBAQBHvhASc9TEKCfa7Kcn
84FQgyohakP/Nqzv/0ORIyXSSoVCacbCW+KNyMU+WCN1k6+PNChTobeWqE7A1H+K
acRbUM0f/O2LBNBFuHDkibgWaxKwdCZCsrk48jZGyZacZTlSrEDH2feNNeCHAK+j
UFeCxASB/ft/2oxudKCFivUqtN3IstEZAdedTJusSouHDSNLs2+12pfKtTI7UiA+
kU/HBtV2XP5gUIdlZw7QcXB1PSumzRPw6inTpc34wMja8HF0syez3WDeRhQaojG/
zOi25T2uIfyMrUW7ubSdnzQVT0S+ONdfbX4+7C7g4nAcsuAV7vRUSnbUTSLOPZST
qYmz
-----END CERTIFICATE-----
