Certificate:
    Data:
        Version: 3 (0x2)
        Serial Number:
            9d:dc:da:52:04:fc:55:09:8a:78:d9:03:62:28:29:6b
        Signature Algorithm: sha256WithRSAEncryption
        Issuer: CN=user
        Validity
            Not Before: Oct 19 18:23:17 2024 GMT
            Not After : Jan 22 18:23:17 2027 GMT
        Subject: CN=client1
        Subject Public Key Info:
            Public Key Algorithm: rsaEncryption
                RSA Public-Key: (2048 bit)
                Modulus:
                    00:b7:05:48:86:89:b2:c7:65:e1:b1:94:c2:44:8b:
                    d3:33:74:32:39:14:d9:36:7e:c8:62:0f:52:3c:76:
                    cd:64:dd:98:b8:59:52:1c:53:99:71:73:f1:63:09:
                    c2:a3:cf:e6:ef:64:be:ed:a2:66:3e:32:74:04:f8:
                    50:3f:a3:cb:97:2a:d6:46:6e:90:17:bc:42:b1:00:
                    0f:c1:b1:19:bb:7e:c9:9d:05:9b:80:b9:ee:3e:af:
                    c1:eb:b6:4e:87:4e:94:21:42:8c:23:1c:7e:a6:d6:
                    ae:86:37:72:cb:c7:2a:b6:74:46:e1:fb:10:1e:f2:
                    14:4d:38:11:ac:e0:e3:32:af:3c:8a:2b:76:bb:7c:
                    09:b0:b1:17:ec:10:27:7e:8a:a0:23:fe:b1:7e:bb:
                    1d:12:d7:9d:7f:8e:2d:36:93:28:79:dd:92:01:c8:
                    6d:b3:52:53:a9:e0:a2:cb:82:00:a4:a0:df:71:1b:
                    4f:85:c1:9e:a1:b4:de:be:be:b1:2e:35:35:eb:18:
                    81:66:db:76:02:0f:89:af:88:08:7c:aa:71:6f:bd:
                    08:cf:a3:51:31:69:50:72:54:97:3c:e8:e6:62:db:
                    b9:fd:82:d6:f8:ed:7d:38:c1:5d:73:9a:d6:ee:53:
                    24:36:3e:74:de:08:dd:78:be:2e:3a:b0:56:d7:0b:
                    88:2f
                Exponent: 65537 (0x10001)
        X509v3 extensions:
            X509v3 Basic Constraints: 
                CA:FALSE
            X509v3 Subject Key Identifier: 
                EF:95:98:B6:88:64:66:71:98:BE:FF:CA:2D:D6:6C:BB:4B:74:31:D0
            X509v3 Authority Key Identifier: 
                keyid:5E:5D:7C:59:A6:EF:5A:D6:29:B5:49:19:5B:6D:24:49:2C:EA:63:DC
                DirName:/CN=user
                serial:63:31:07:F2:19:F7:93:7B:B7:72:F2:6B:6A:27:2F:9B:58:AB:4D:AC

            X509v3 Extended Key Usage: 
                TLS Web Client Authentication
            X509v3 Key Usage: 
                Digital Signature
    Signature Algorithm: sha256WithRSAEncryption
         9e:7c:6e:76:e0:59:27:1f:96:ab:11:39:ee:36:e9:86:0c:17:
         48:31:80:de:35:97:39:41:62:8e:32:5f:79:c9:13:1b:0d:de:
         ac:5a:eb:e5:5d:9d:00:fc:42:ea:0f:27:f8:0c:17:d2:2e:bc:
         3a:65:7b:0f:65:e4:04:4b:a5:d7:5d:0b:7f:75:f7:a2:4b:1e:
         44:0c:5a:e4:c2:1d:43:e0:1b:99:ae:33:a0:de:c5:ea:1c:e4:
         6e:3e:d5:6f:7b:d1:a2:0e:d9:e0:5d:31:ae:5a:5c:ca:8c:24:
         b8:c0:66:b8:58:69:8d:43:5e:80:82:d5:e2:d2:9b:37:76:fb:
         46:b8:d0:2f:53:2d:8e:3a:be:9c:9d:24:69:cc:db:fb:08:39:
         0e:a9:cd:f3:26:a1:9f:f8:b2:65:46:fa:bb:c9:2c:d0:81:c0:
         46:6a:bd:56:a0:26:7c:8c:a8:6f:69:bc:af:ca:26:ef:ca:b3:
         01:9a:32:44:3b:8a:ef:41:08:6d:41:bd:f4:67:fd:c6:9b:64:
         4e:48:c7:e3:db:e3:ab:48:32:64:35:ad:4a:34:a7:0b:16:0e:
         2e:ed:45:e9:51:9b:28:ac:43:44:f6:e8:8d:68:35:cd:04:43:
         67:de:15:9e:ff:c4:68:96:28:fe:d5:3a:f7:22:24:06:e2:86:
         0b:08:16:4c
-----BEGIN CERTIFICATE-----
MIIDSDCCAjCgAwIBAgIRAJ3c2lIE/FUJinjZA2IoKWswDQYJKoZIhvcNAQELBQAw
DzENMAsGA1UEAwwEdXNlcjAeFw0yNDEwMTkxODIzMTdaFw0yNzAxMjIxODIzMTda
MBIxEDAOBgNVBAMMB2NsaWVudDEwggEiMA0GCSqGSIb3DQEBAQUAA4IBDwAwggEK
AoIBAQC3BUiGibLHZeGxlMJEi9MzdDI5FNk2fshiD1I8ds1k3Zi4WVIcU5lxc/Fj
CcKjz+bvZL7tomY+MnQE+FA/o8uXKtZGbpAXvEKxAA/BsRm7fsmdBZuAue4+r8Hr
tk6HTpQhQowjHH6m1q6GN3LLxyq2dEbh+xAe8hRNOBGs4OMyrzyKK3a7fAmwsRfs
ECd+iqAj/rF+ux0S151/ji02kyh53ZIByG2zUlOp4KLLggCkoN9xG0+FwZ6htN6+
vrEuNTXrGIFm23YCD4mviAh8qnFvvQjPo1ExaVByVJc86OZi27n9gtb47X04wV1z
mtbuUyQ2PnTeCN14vi46sFbXC4gvAgMBAAGjgZswgZgwCQYDVR0TBAIwADAdBgNV
HQ4EFgQU75WYtohkZnGYvv/KLdZsu0t0MdAwSgYDVR0jBEMwQYAUXl18WabvWtYp
tUkZW20kSSzqY9yhE6QRMA8xDTALBgNVBAMMBHVzZXKCFGMxB/IZ95N7t3Lya2on
L5tYq02sMBMGA1UdJQQMMAoGCCsGAQUFBwMCMAsGA1UdDwQEAwIHgDANBgkqhkiG
9w0BAQsFAAOCAQEAnnxuduBZJx+WqxE57jbphgwXSDGA3jWXOUFijjJfeckTGw3e
rFrr5V2dAPxC6g8n+AwX0i68OmV7D2XkBEul110Lf3X3okseRAxa5MIdQ+Abma4z
oN7F6hzkbj7Vb3vRog7Z4F0xrlpcyowkuMBmuFhpjUNegILV4tKbN3b7RrjQL1Mt
jjq+nJ0kaczb+wg5DqnN8yahn/iyZUb6u8ks0IHARmq9VqAmfIyob2m8r8om78qz
AZoyRDuK70EIbUG99Gf9xptkTkjH49vjq0gyZDWtSjSnCxYOLu1F6VGbKKxDRPbo
jWg1zQRDZ94Vnv/EaJYo/tU69yIkBuKGCwgWTA==
-----END CERTIFICATE-----
